; Function Attrs: mustprogress nofree norecurse nosync nounwind willreturn memory(argmem: readwrite) uwtable
define hidden void @_ZNK3dpx14IndustryHeader12FilmEdgeCodeEPc(ptr noundef nonnull readonly align 4 captures(none) dereferenceable(384) %0, ptr noundef writeonly captures(none) initializes((0, 17)) %1) local_unnamed_addr #12 align 2 {
  %3 = load i8, ptr %0, align 4, !tbaa !14
  store i8 %3, ptr %1, align 1, !tbaa !14
  %4 = getelementptr inbounds nuw i8, ptr %0, i64 1
  %5 = load i8, ptr %4, align 1, !tbaa !14
  %6 = getelementptr inbounds nuw i8, ptr %1, i64 1
  store i8 %5, ptr %6, align 1, !tbaa !14
  %7 = getelementptr inbounds nuw i8, ptr %0, i64 2
  %8 = load i8, ptr %7, align 2, !tbaa !14
  %9 = getelementptr inbounds nuw i8, ptr %1, i64 2
  store i8 %8, ptr %9, align 1, !tbaa !14
  %10 = getelementptr inbounds nuw i8, ptr %0, i64 3
  %11 = load i8, ptr %10, align 1, !tbaa !14
  %12 = getelementptr inbounds nuw i8, ptr %1, i64 3
  store i8 %11, ptr %12, align 1, !tbaa !14
  %13 = getelementptr inbounds nuw i8, ptr %0, i64 4
  %14 = load i8, ptr %13, align 4, !tbaa !14
  %15 = getelementptr inbounds nuw i8, ptr %1, i64 4
  store i8 %14, ptr %15, align 1, !tbaa !14
  %16 = getelementptr inbounds nuw i8, ptr %0, i64 5
  %17 = load i8, ptr %16, align 1, !tbaa !14
  %18 = getelementptr inbounds nuw i8, ptr %1, i64 5
  store i8 %17, ptr %18, align 1, !tbaa !14
  %19 = getelementptr inbounds nuw i8, ptr %0, i64 6
  %20 = load i8, ptr %19, align 2, !tbaa !14
  %21 = getelementptr inbounds nuw i8, ptr %1, i64 6
  store i8 %20, ptr %21, align 1, !tbaa !14
  %22 = getelementptr inbounds nuw i8, ptr %0, i64 7
  %23 = load i8, ptr %22, align 1, !tbaa !14
  %24 = getelementptr inbounds nuw i8, ptr %1, i64 7
  store i8 %23, ptr %24, align 1, !tbaa !14
  %25 = getelementptr inbounds nuw i8, ptr %0, i64 8
  %26 = load i8, ptr %25, align 4, !tbaa !14
  %27 = getelementptr inbounds nuw i8, ptr %1, i64 8
  store i8 %26, ptr %27, align 1, !tbaa !14
  %28 = getelementptr inbounds nuw i8, ptr %0, i64 9
  %29 = load i8, ptr %28, align 1, !tbaa !14
  %30 = getelementptr inbounds nuw i8, ptr %1, i64 9
  store i8 %29, ptr %30, align 1, !tbaa !14
  %31 = getelementptr inbounds nuw i8, ptr %0, i64 10
  %32 = load i8, ptr %31, align 2, !tbaa !14
  %33 = getelementptr inbounds nuw i8, ptr %1, i64 10
  store i8 %32, ptr %33, align 1, !tbaa !14
  %34 = getelementptr inbounds nuw i8, ptr %0, i64 11
  %35 = load i8, ptr %34, align 1, !tbaa !14
  %36 = getelementptr inbounds nuw i8, ptr %1, i64 11
  store i8 %35, ptr %36, align 1, !tbaa !14
  %37 = getelementptr inbounds nuw i8, ptr %0, i64 12
  %38 = load i8, ptr %37, align 4, !tbaa !14
  %39 = getelementptr inbounds nuw i8, ptr %1, i64 12
  store i8 %38, ptr %39, align 1, !tbaa !14
  %40 = getelementptr inbounds nuw i8, ptr %0, i64 13
  %41 = load i8, ptr %40, align 1, !tbaa !14
  %42 = getelementptr inbounds nuw i8, ptr %1, i64 13
  store i8 %41, ptr %42, align 1, !tbaa !14
  %43 = getelementptr inbounds nuw i8, ptr %0, i64 14
  %44 = load i8, ptr %43, align 2, !tbaa !14
  %45 = getelementptr inbounds nuw i8, ptr %1, i64 14
  store i8 %44, ptr %45, align 1, !tbaa !14
  %46 = getelementptr inbounds nuw i8, ptr %0, i64 15
  %47 = load i8, ptr %46, align 1, !tbaa !14
  %48 = getelementptr inbounds nuw i8, ptr %1, i64 15
  store i8 %47, ptr %48, align 1, !tbaa !14
  %49 = getelementptr inbounds nuw i8, ptr %1, i64 16
  store i8 0, ptr %49, align 1, !tbaa !14
  ret void
}